; Function Attrs: nounwind uwtable
define void @Acb_ObjCollectTfi_rec(ptr noundef captures(none) %0, i32 noundef %1, i32 noundef %2) local_unnamed_addr #0 {
  %4 = getelementptr i8, ptr %0, i64 96
  %.val = load i32, ptr %4, align 8, !tbaa !3
  %5 = getelementptr i8, ptr %0, i64 264
  %.val18 = load ptr, ptr %5, align 8, !tbaa !21
  %6 = sext i32 %1 to i64
  %7 = getelementptr inbounds i32, ptr %.val18, i64 %6
  %8 = load i32, ptr %7, align 4, !tbaa !22
  %.not = icmp eq i32 %8, %.val
  store i32 %.val, ptr %7, align 4, !tbaa !22
  br i1 %.not, label %60, label %9

9:                                                ; preds = %3
  %.not16 = icmp eq i32 %2, 0
  br i1 %.not16, label %10, label %14

10:                                               ; preds = %9
  %11 = getelementptr i8, ptr %0, i64 120
  %.val19 = load ptr, ptr %11, align 8, !tbaa !23
  %12 = getelementptr inbounds i8, ptr %.val19, i64 %6
  %13 = load i8, ptr %12, align 1, !tbaa !24
  %.not22 = icmp eq i8 %13, 3
  br i1 %.not22, label %60, label %14

14:                                               ; preds = %10, %9
  %15 = getelementptr i8, ptr %0, i64 136
  %.val20 = load ptr, ptr %15, align 8, !tbaa !21
  %16 = getelementptr i8, ptr %0, i64 152
  %.val21 = load ptr, ptr %16, align 8, !tbaa !21
  %17 = getelementptr inbounds i32, ptr %.val20, i64 %6
  %18 = load i32, ptr %17, align 4, !tbaa !22
  %19 = sext i32 %18 to i64
  %20 = getelementptr inbounds i32, ptr %.val21, i64 %19
  %21 = load i32, ptr %20, align 4, !tbaa !22
  %22 = icmp sgt i32 %21, 0
  br i1 %22, label %.lr.ph, label %.critedge

.lr.ph:                                           ; preds = %14, %.lr.ph
  %indvars.iv = phi i64 [ %indvars.iv.next, %.lr.ph ], [ 0, %14 ]
  %indvars.iv.next = add nuw nsw i64 %indvars.iv, 1
  %23 = getelementptr inbounds nuw i32, ptr %20, i64 %indvars.iv.next
  %24 = load i32, ptr %23, align 4, !tbaa !22
  tail call void @Acb_ObjCollectTfi_rec(ptr noundef %0, i32 noundef %24, i32 noundef %2)
  %25 = load i32, ptr %20, align 4, !tbaa !22
  %26 = sext i32 %25 to i64
  %27 = icmp slt i64 %indvars.iv.next, %26
  br i1 %27, label %.lr.ph, label %.critedge, !llvm.loop !25

.critedge:                                        ; preds = %.lr.ph, %14
  %28 = getelementptr inbounds nuw i8, ptr %0, i64 520
  %29 = getelementptr inbounds nuw i8, ptr %0, i64 524
  %30 = load i32, ptr %29, align 4, !tbaa !27
  %31 = load i32, ptr %28, align 8, !tbaa !28
  %32 = icmp eq i32 %30, %31
  br i1 %32, label %33, label %.Vec_IntGrow.exit10_crit_edge.i

.Vec_IntGrow.exit10_crit_edge.i:                  ; preds = %.critedge
  %.phi.trans.insert.i = getelementptr inbounds nuw i8, ptr %0, i64 528
  %.pre.i = load ptr, ptr %.phi.trans.insert.i, align 8, !tbaa !21
  br label %Vec_IntPush.exit

33:                                               ; preds = %.critedge
  %34 = icmp slt i32 %30, 16
  br i1 %34, label %35, label %43

35:                                               ; preds = %33
  %36 = getelementptr inbounds nuw i8, ptr %0, i64 528
  %37 = load ptr, ptr %36, align 8, !tbaa !21
  %.not9.i.i = icmp eq ptr %37, null
  br i1 %.not9.i.i, label %40, label %38

38:                                               ; preds = %35
  %39 = tail call dereferenceable_or_null(64) ptr @realloc(ptr noundef nonnull %37, i64 noundef 64) #25
  br label %Vec_IntGrow.exit.i

40:                                               ; preds = %35
  %41 = tail call noalias dereferenceable_or_null(64) ptr @malloc(i64 noundef 64) #26
  br label %Vec_IntGrow.exit.i

Vec_IntGrow.exit.i:                               ; preds = %40, %38
  %42 = phi ptr [ %39, %38 ], [ %41, %40 ]
  store ptr %42, ptr %36, align 8, !tbaa !21
  store i32 16, ptr %28, align 8, !tbaa !28
  br label %Vec_IntPush.exit

43:                                               ; preds = %33
  %44 = shl nuw nsw i32 %30, 1
  %45 = getelementptr inbounds nuw i8, ptr %0, i64 528
  %46 = load ptr, ptr %45, align 8, !tbaa !21
  %.not9.i9.i = icmp eq ptr %46, null
  %47 = zext nneg i32 %44 to i64
  %48 = shl nuw nsw i64 %47, 2
  br i1 %.not9.i9.i, label %51, label %49

49:                                               ; preds = %43
  %50 = tail call ptr @realloc(ptr noundef nonnull %46, i64 noundef %48) #25
  br label %53

51:                                               ; preds = %43
  %52 = tail call noalias ptr @malloc(i64 noundef %48) #26
  br label %53

53:                                               ; preds = %51, %49
  %54 = phi ptr [ %50, %49 ], [ %52, %51 ]
  store ptr %54, ptr %45, align 8, !tbaa !21
  store i32 %44, ptr %28, align 8, !tbaa !28
  br label %Vec_IntPush.exit

Vec_IntPush.exit:                                 ; preds = %.Vec_IntGrow.exit10_crit_edge.i, %Vec_IntGrow.exit.i, %53
  %55 = phi ptr [ %.pre.i, %.Vec_IntGrow.exit10_crit_edge.i ], [ %54, %53 ], [ %42, %Vec_IntGrow.exit.i ]
  %56 = load i32, ptr %29, align 4, !tbaa !27
  %57 = add nsw i32 %56, 1
  store i32 %57, ptr %29, align 4, !tbaa !27
  %58 = sext i32 %56 to i64
  %59 = getelementptr inbounds i32, ptr %55, i64 %58
  store i32 %1, ptr %59, align 4, !tbaa !22
  br label %60

60:                                               ; preds = %10, %3, %Vec_IntPush.exit
  ret void
}